target datalayout = "e-m:e-p270:32:32-p271:32:32-p272:64:64-i64:64-i128:128-f80:128-n8:16:32:64-S128"
target triple = "x86_64-pc-linux-gnu"

@.str = private unnamed_addr constant [1 x i8] zeroinitializer, align 1
@.str.7 = private unnamed_addr constant [17 x i8] c"epan/decode_as.c\00", align 1
@.str.8 = private unnamed_addr constant [31 x i8] c"assertion \22not reached\22 failed\00", align 1
@.str.12 = private unnamed_addr constant [7 x i8] c"(none)\00", align 1
@.str.14 = private unnamed_addr constant [30 x i8] c"decode_as_entry: %s,%u,%s,%s\0A\00", align 1
@.str.15 = private unnamed_addr constant [29 x i8] c"decode_as_entry: %s,0,%s,%s\0A\00", align 1
@.str.16 = private unnamed_addr constant [30 x i8] c"decode_as_entry: %s,%s,%s,%s\0A\00", align 1
@__func__.decode_as_write_entry = private unnamed_addr constant [22 x i8] c"decode_as_write_entry\00", align 1

; Function Attrs: null_pointer_is_valid sspstrong uwtable
define internal void @decode_as_write_entry(ptr noundef %0, i32 noundef %1, ptr noundef %2, ptr noundef %3, ptr noundef %4) #0 {
  %6 = alloca ptr, align 8
  %7 = alloca i32, align 4
  %8 = alloca ptr, align 8
  %9 = alloca ptr, align 8
  %10 = alloca ptr, align 8
  %11 = alloca ptr, align 8
  %12 = alloca ptr, align 8
  %13 = alloca ptr, align 8
  %14 = alloca ptr, align 8
  %15 = alloca ptr, align 8
  %16 = alloca ptr, align 8
  store ptr %0, ptr %6, align 8
  store i32 %1, ptr %7, align 4
  store ptr %2, ptr %8, align 8
  store ptr %3, ptr %9, align 8
  store ptr %4, ptr %10, align 8
  call void @llvm.lifetime.start.p0(i64 8, ptr %11) #15
  %17 = load ptr, ptr %10, align 8
  store ptr %17, ptr %11, align 8
  call void @llvm.lifetime.start.p0(i64 8, ptr %12) #15
  call void @llvm.lifetime.start.p0(i64 8, ptr %13) #15
  call void @llvm.lifetime.start.p0(i64 8, ptr %14) #15
  call void @llvm.lifetime.start.p0(i64 8, ptr %15) #15
  call void @llvm.lifetime.start.p0(i64 8, ptr %16) #15
  %18 = load ptr, ptr %9, align 8
  %19 = call ptr @dtbl_entry_get_handle(ptr noundef %18)
  store ptr %19, ptr %12, align 8
  %20 = load ptr, ptr %12, align 8
  %21 = icmp eq ptr %20, null
  br i1 %21, label %22, label %23

22:                                               ; preds = %5
  store ptr @.str.12, ptr %14, align 8
  br label %26

23:                                               ; preds = %5
  %24 = load ptr, ptr %12, align 8
  %25 = call ptr @dissector_handle_get_description(ptr noundef %24)
  store ptr %25, ptr %14, align 8
  br label %26

26:                                               ; preds = %23, %22
  %27 = load ptr, ptr %9, align 8
  %28 = call ptr @dtbl_entry_get_initial_handle(ptr noundef %27)
  store ptr %28, ptr %13, align 8
  %29 = load ptr, ptr %13, align 8
  %30 = icmp eq ptr %29, null
  br i1 %30, label %31, label %32

31:                                               ; preds = %26
  store ptr @.str.12, ptr %15, align 8
  br label %35

32:                                               ; preds = %26
  %33 = load ptr, ptr %13, align 8
  %34 = call ptr @dissector_handle_get_description(ptr noundef %33)
  store ptr %34, ptr %15, align 8
  br label %35

35:                                               ; preds = %32, %31
  %36 = load i32, ptr %7, align 4
  switch i32 %36, label %56 [
    i32 4, label %37
    i32 5, label %37
    i32 6, label %37
    i32 7, label %37
    i32 0, label %45
    i32 26, label %50
    i32 27, label %50
    i32 28, label %50
    i32 43, label %50
    i32 45, label %50
  ]

37:                                               ; preds = %35, %35, %35, %35
  %38 = load ptr, ptr %6, align 8
  %39 = load ptr, ptr %8, align 8
  %40 = ptrtoint ptr %39 to i64
  %41 = trunc i64 %40 to i32
  %42 = load ptr, ptr %15, align 8
  %43 = load ptr, ptr %14, align 8
  %44 = call noalias ptr (ptr, ptr, ...) @wmem_strdup_printf(ptr noundef null, ptr noundef @.str.14, ptr noundef %38, i32 noundef %41, ptr noundef %42, ptr noundef %43)
  store ptr %44, ptr %16, align 8
  br label %57

45:                                               ; preds = %35
  %46 = load ptr, ptr %6, align 8
  %47 = load ptr, ptr %15, align 8
  %48 = load ptr, ptr %14, align 8
  %49 = call noalias ptr (ptr, ptr, ...) @wmem_strdup_printf(ptr noundef null, ptr noundef @.str.15, ptr noundef %46, ptr noundef %47, ptr noundef %48)
  store ptr %49, ptr %16, align 8
  br label %57

50:                                               ; preds = %35, %35, %35, %35, %35
  %51 = load ptr, ptr %6, align 8
  %52 = load ptr, ptr %8, align 8
  %53 = load ptr, ptr %15, align 8
  %54 = load ptr, ptr %14, align 8
  %55 = call noalias ptr (ptr, ptr, ...) @wmem_strdup_printf(ptr noundef null, ptr noundef @.str.16, ptr noundef %51, ptr noundef %52, ptr noundef %53, ptr noundef %54)
  store ptr %55, ptr %16, align 8
  br label %57

56:                                               ; preds = %35
  call void (ptr, i32, ptr, i64, ptr, ptr, ...) @ws_log_fatal_full(ptr noundef @.str, i32 noundef 7, ptr noundef @.str.7, i64 noundef 373, ptr noundef @__func__.decode_as_write_entry, ptr noundef @.str.8) #17
  unreachable

57:                                               ; preds = %50, %45, %37
  %58 = load ptr, ptr %11, align 8
  %59 = load ptr, ptr %58, align 8
  %60 = load ptr, ptr %16, align 8
  %61 = call ptr @g_list_insert_sorted(ptr noundef %59, ptr noundef %60, ptr noundef @g_ascii_strcasecmp)
  %62 = load ptr, ptr %11, align 8
  store ptr %61, ptr %62, align 8
  call void @llvm.lifetime.end.p0(i64 8, ptr %16) #15
  call void @llvm.lifetime.end.p0(i64 8, ptr %15) #15
  call void @llvm.lifetime.end.p0(i64 8, ptr %14) #15
  call void @llvm.lifetime.end.p0(i64 8, ptr %13) #15
  call void @llvm.lifetime.end.p0(i64 8, ptr %12) #15
  call void @llvm.lifetime.end.p0(i64 8, ptr %11) #15
  ret void
}