; Function Attrs: null_pointer_is_valid sspstrong uwtable
define internal void @decode_as_write_entry(ptr noundef %0, i32 noundef %1, ptr noundef %2, ptr noundef %3, ptr noundef captures(none) %4) #0 {
  %6 = tail call ptr @dtbl_entry_get_handle(ptr noundef %3)
  %7 = icmp eq ptr %6, null
  br i1 %7, label %10, label %8

8:                                                ; preds = %5
  %9 = tail call ptr @dissector_handle_get_description(ptr noundef nonnull %6)
  br label %10

10:                                               ; preds = %5, %8
  %.022 = phi ptr [ %9, %8 ], [ @.str.12, %5 ]
  %11 = tail call ptr @dtbl_entry_get_initial_handle(ptr noundef %3)
  %12 = icmp eq ptr %11, null
  br i1 %12, label %15, label %13

13:                                               ; preds = %10
  %14 = tail call ptr @dissector_handle_get_description(ptr noundef nonnull %11)
  br label %15

15:                                               ; preds = %10, %13
  %.021 = phi ptr [ %14, %13 ], [ @.str.12, %10 ]
  switch i32 %1, label %24 [
    i32 4, label %16
    i32 5, label %16
    i32 6, label %16
    i32 7, label %16
    i32 0, label %20
    i32 26, label %22
    i32 27, label %22
    i32 28, label %22
    i32 43, label %22
    i32 45, label %22
  ]

16:                                               ; preds = %15, %15, %15, %15
  %17 = ptrtoint ptr %2 to i64
  %18 = trunc i64 %17 to i32
  %19 = tail call noalias ptr (ptr, ptr, ...) @wmem_strdup_printf(ptr noundef null, ptr noundef nonnull @.str.14, ptr noundef %0, i32 noundef %18, ptr noundef %.021, ptr noundef %.022)
  br label %25

20:                                               ; preds = %15
  %21 = tail call noalias ptr (ptr, ptr, ...) @wmem_strdup_printf(ptr noundef null, ptr noundef nonnull @.str.15, ptr noundef %0, ptr noundef %.021, ptr noundef %.022)
  br label %25

22:                                               ; preds = %15, %15, %15, %15, %15
  %23 = tail call noalias ptr (ptr, ptr, ...) @wmem_strdup_printf(ptr noundef null, ptr noundef nonnull @.str.16, ptr noundef %0, ptr noundef %2, ptr noundef %.021, ptr noundef %.022)
  br label %25

24:                                               ; preds = %15
  tail call void (ptr, i32, ptr, i64, ptr, ptr, ...) @ws_log_fatal_full(ptr noundef nonnull @.str, i32 noundef 7, ptr noundef nonnull @.str.7, i64 noundef 373, ptr noundef nonnull @__func__.decode_as_write_entry, ptr noundef nonnull @.str.8) #16
  unreachable

25:                                               ; preds = %22, %20, %16
  %.0 = phi ptr [ %23, %22 ], [ %21, %20 ], [ %19, %16 ]
  %26 = load ptr, ptr %4, align 8
  %27 = tail call ptr @g_list_insert_sorted(ptr noundef %26, ptr noundef %.0, ptr noundef nonnull @g_ascii_strcasecmp)
  store ptr %27, ptr %4, align 8
  ret void
}